target datalayout = "e-m:e-p270:32:32-p271:32:32-p272:64:64-i64:64-i128:128-f80:128-n8:16:32:64-S128"
target triple = "x86_64-pc-linux-gnu"

%class.anon.24 = type { i8 }

@.str.2 = private unnamed_addr constant [9 x i8] c"rewriter\00", align 1
@.str.82 = private unnamed_addr constant [6 x i8] c"false\00", align 1
@.str.541 = private unnamed_addr constant [20 x i8] c"expand_select_store\00", align 1
@.str.542 = private unnamed_addr constant [79 x i8] c"conservatively replace a (select (store ...) ...) term by an if-then-else term\00", align 1
@.str.543 = private unnamed_addr constant [19 x i8] c"blast_select_store\00", align 1
@.str.544 = private unnamed_addr constant [72 x i8] c"eagerly replace all (select (store ..) ..) term by an if-then-else term\00", align 1
@.str.545 = private unnamed_addr constant [21 x i8] c"expand_nested_stores\00", align 1
@.str.546 = private unnamed_addr constant [45 x i8] c"replace nested stores by a lambda expression\00", align 1
@.str.547 = private unnamed_addr constant [18 x i8] c"expand_select_ite\00", align 1
@.str.548 = private unnamed_addr constant [35 x i8] c"expand select over ite expressions\00", align 1
@.str.549 = private unnamed_addr constant [16 x i8] c"expand_store_eq\00", align 1
@.str.550 = private unnamed_addr constant [65 x i8] c"reduce (store ...) = (store ...) with a common base into selects\00", align 1
@.str.551 = private unnamed_addr constant [11 x i8] c"sort_store\00", align 1
@.str.552 = private unnamed_addr constant [62 x i8] c"sort nested stores when the indices are known to be different\00", align 1

; Function Attrs: mustprogress uwtable
define linkonce_odr hidden void @_ZN21array_rewriter_params20collect_param_descrsER12param_descrs(ptr noundef nonnull align 8 dereferenceable(8) %0) #4 comdat align 2 {
  %2 = alloca ptr, align 8
  store ptr %0, ptr %2, align 8, !tbaa !7
  %3 = load ptr, ptr %2, align 8, !tbaa !7
  call void @_ZN12param_descrs6insertEPKc12cmd_arg_kindS1_S1_S1_(ptr noundef nonnull align 8 dereferenceable(8) %3, ptr noundef @.str.541, i32 noundef 1, ptr noundef @.str.542, ptr noundef @.str.82, ptr noundef @.str.2)
  %4 = load ptr, ptr %2, align 8, !tbaa !7
  call void @_ZN12param_descrs6insertEPKc12cmd_arg_kindS1_S1_S1_(ptr noundef nonnull align 8 dereferenceable(8) %4, ptr noundef @.str.543, i32 noundef 1, ptr noundef @.str.544, ptr noundef @.str.82, ptr noundef @.str.2)
  %5 = load ptr, ptr %2, align 8, !tbaa !7
  call void @_ZN12param_descrs6insertEPKc12cmd_arg_kindS1_S1_S1_(ptr noundef nonnull align 8 dereferenceable(8) %5, ptr noundef @.str.545, i32 noundef 1, ptr noundef @.str.546, ptr noundef @.str.82, ptr noundef @.str.2)
  %6 = load ptr, ptr %2, align 8, !tbaa !7
  call void @_ZN12param_descrs6insertEPKc12cmd_arg_kindS1_S1_S1_(ptr noundef nonnull align 8 dereferenceable(8) %6, ptr noundef @.str.547, i32 noundef 1, ptr noundef @.str.548, ptr noundef @.str.82, ptr noundef @.str.2)
  %7 = load ptr, ptr %2, align 8, !tbaa !7
  call void @_ZN12param_descrs6insertEPKc12cmd_arg_kindS1_S1_S1_(ptr noundef nonnull align 8 dereferenceable(8) %7, ptr noundef @.str.549, i32 noundef 1, ptr noundef @.str.550, ptr noundef @.str.82, ptr noundef @.str.2)
  %8 = load ptr, ptr %2, align 8, !tbaa !7
  call void @_ZN12param_descrs6insertEPKc12cmd_arg_kindS1_S1_S1_(ptr noundef nonnull align 8 dereferenceable(8) %8, ptr noundef @.str.551, i32 noundef 1, ptr noundef @.str.552, ptr noundef @.str.82, ptr noundef @.str.2)
  ret void
}

; Function Attrs: inlinehint mustprogress uwtable
define internal noundef ptr @"_ZZ24gparams_register_modulesvENK4$_13clEv"(ptr noundef nonnull align 1 dereferenceable(1) %0) #8 align 2 {
  %2 = alloca ptr, align 8
  %3 = alloca ptr, align 8
  store ptr %0, ptr %2, align 8, !tbaa !3
  call void @llvm.lifetime.start.p0(i64 8, ptr %3) #3
  %4 = call noalias noundef ptr @_ZN6memory8allocateEm(i64 noundef 8)
  call void @_ZN12param_descrsC1Ev(ptr noundef nonnull align 8 dereferenceable(8) %4)
  store ptr %4, ptr %3, align 8, !tbaa !7
  %5 = load ptr, ptr %3, align 8, !tbaa !7
  call void @_ZN21array_rewriter_params20collect_param_descrsER12param_descrs(ptr noundef nonnull align 8 dereferenceable(8) %5)
  %6 = load ptr, ptr %3, align 8, !tbaa !7
  call void @llvm.lifetime.end.p0(i64 8, ptr %3) #3
  ret ptr %6
}

; Function Attrs: inlinehint mustprogress uwtable
define internal noundef ptr @"_ZZ24gparams_register_modulesvEN4$_138__invokeEv"() #8 align 2 {
  %1 = alloca %class.anon.24, align 1
  %2 = call noundef ptr @"_ZZ24gparams_register_modulesvENK4$_13clEv"(ptr noundef nonnull align 1 dereferenceable(1) %1)
  ret ptr %2
}