; Function Attrs: inlinehint mustprogress uwtable
define internal noundef ptr @"_ZZ24gparams_register_modulesvEN4$_138__invokeEv"() #5 align 2 {
  %1 = tail call noalias noundef ptr @_ZN6memory8allocateEm(i64 noundef 8)
  tail call void @_ZN12param_descrsC1Ev(ptr noundef nonnull align 8 dereferenceable(8) %1)
  tail call void @_ZN12param_descrs6insertEPKc12cmd_arg_kindS1_S1_S1_(ptr noundef nonnull align 8 dereferenceable(8) %1, ptr noundef nonnull @.str.541, i32 noundef 1, ptr noundef nonnull @.str.542, ptr noundef nonnull @.str.82, ptr noundef nonnull @.str.2)
  tail call void @_ZN12param_descrs6insertEPKc12cmd_arg_kindS1_S1_S1_(ptr noundef nonnull align 8 dereferenceable(8) %1, ptr noundef nonnull @.str.543, i32 noundef 1, ptr noundef nonnull @.str.544, ptr noundef nonnull @.str.82, ptr noundef nonnull @.str.2)
  tail call void @_ZN12param_descrs6insertEPKc12cmd_arg_kindS1_S1_S1_(ptr noundef nonnull align 8 dereferenceable(8) %1, ptr noundef nonnull @.str.545, i32 noundef 1, ptr noundef nonnull @.str.546, ptr noundef nonnull @.str.82, ptr noundef nonnull @.str.2)
  tail call void @_ZN12param_descrs6insertEPKc12cmd_arg_kindS1_S1_S1_(ptr noundef nonnull align 8 dereferenceable(8) %1, ptr noundef nonnull @.str.547, i32 noundef 1, ptr noundef nonnull @.str.548, ptr noundef nonnull @.str.82, ptr noundef nonnull @.str.2)
  tail call void @_ZN12param_descrs6insertEPKc12cmd_arg_kindS1_S1_S1_(ptr noundef nonnull align 8 dereferenceable(8) %1, ptr noundef nonnull @.str.549, i32 noundef 1, ptr noundef nonnull @.str.550, ptr noundef nonnull @.str.82, ptr noundef nonnull @.str.2)
  tail call void @_ZN12param_descrs6insertEPKc12cmd_arg_kindS1_S1_S1_(ptr noundef nonnull align 8 dereferenceable(8) %1, ptr noundef nonnull @.str.551, i32 noundef 1, ptr noundef nonnull @.str.552, ptr noundef nonnull @.str.82, ptr noundef nonnull @.str.2)
  ret ptr %1
}